; Function Attrs: mustprogress uwtable
define noundef nonnull align 8 dereferenceable(20) ptr @_ZN4pkpy7SStreamlsENS_7StrNameE(ptr noundef nonnull returned align 8 dereferenceable(20) %0, i16 %1) local_unnamed_addr #3 align 2 {
  %3 = alloca %"struct.pkpy::StrName", align 2
  store i16 %1, ptr %3, align 2
  %4 = call { i64, ptr } @_ZNK4pkpy7StrName2svEv(ptr noundef nonnull align 2 dereferenceable(2) %3)
  %5 = extractvalue { i64, ptr } %4, 0
  %6 = extractvalue { i64, ptr } %4, 1
  %7 = getelementptr inbounds i8, ptr %6, i64 %5
  %.not6.i.i = icmp eq i64 %5, 0
  br i1 %.not6.i.i, label %_ZN4pkpy7SStreamlsESt17basic_string_viewIcSt11char_traitsIcEE.exit, label %.lr.ph.i.i

.lr.ph.i.i:                                       ; preds = %2
  %8 = getelementptr inbounds i8, ptr %0, i64 4
  %9 = getelementptr inbounds i8, ptr %0, i64 8
  br label %10

10:                                               ; preds = %_ZN4pkpy10pod_vectorIcLi2EE9push_backIRKcEEvOT_.exit.i.i, %.lr.ph.i.i
  %.07.i.i = phi ptr [ %6, %.lr.ph.i.i ], [ %28, %_ZN4pkpy10pod_vectorIcLi2EE9push_backIRKcEEvOT_.exit.i.i ]
  %11 = load i32, ptr %0, align 8
  %12 = load i32, ptr %8, align 4
  %13 = icmp eq i32 %11, %12
  br i1 %13, label %14, label %_ZN4pkpy10pod_vectorIcLi2EE9push_backIRKcEEvOT_.exit.i.i

14:                                               ; preds = %10
  %15 = shl nsw i32 %11, 1
  %.not.i.i.i.i = icmp slt i32 %11, %15
  br i1 %.not.i.i.i.i, label %16, label %_ZN4pkpy10pod_vectorIcLi2EE9push_backIRKcEEvOT_.exit.i.i

16:                                               ; preds = %14
  store i32 %15, ptr %8, align 4
  %17 = load ptr, ptr %9, align 8
  %18 = sext i32 %15 to i64
  %19 = call noundef ptr @_ZN4pkpy12pool64_allocEm(i64 noundef %18) #23
  store ptr %19, ptr %9, align 8
  %.not6.i.i.i.i = icmp eq ptr %17, null
  %.pre2.i.i.i = load i32, ptr %0, align 8
  br i1 %.not6.i.i.i.i, label %_ZN4pkpy10pod_vectorIcLi2EE9push_backIRKcEEvOT_.exit.i.i, label %20

20:                                               ; preds = %16
  %21 = sext i32 %.pre2.i.i.i to i64
  call void @llvm.memcpy.p0.p0.i64(ptr align 1 %19, ptr nonnull align 1 %17, i64 %21, i1 false)
  call void @_ZN4pkpy14pool64_deallocEPv(ptr noundef nonnull %17) #23
  %.pre.i.i.i = load i32, ptr %0, align 8
  br label %_ZN4pkpy10pod_vectorIcLi2EE9push_backIRKcEEvOT_.exit.i.i

_ZN4pkpy10pod_vectorIcLi2EE9push_backIRKcEEvOT_.exit.i.i: ; preds = %20, %16, %14, %10
  %22 = phi i32 [ %.pre.i.i.i, %20 ], [ %.pre2.i.i.i, %16 ], [ %11, %14 ], [ %11, %10 ]
  %23 = load i8, ptr %.07.i.i, align 1
  %24 = load ptr, ptr %9, align 8
  %25 = add nsw i32 %22, 1
  store i32 %25, ptr %0, align 8
  %26 = sext i32 %22 to i64
  %27 = getelementptr inbounds i8, ptr %24, i64 %26
  store i8 %23, ptr %27, align 1
  %28 = getelementptr inbounds i8, ptr %.07.i.i, i64 1
  %.not.i.i = icmp eq ptr %28, %7
  br i1 %.not.i.i, label %_ZN4pkpy7SStreamlsESt17basic_string_viewIcSt11char_traitsIcEE.exit, label %10, !llvm.loop !51

_ZN4pkpy7SStreamlsESt17basic_string_viewIcSt11char_traitsIcEE.exit: ; preds = %_ZN4pkpy10pod_vectorIcLi2EE9push_backIRKcEEvOT_.exit.i.i, %2
  ret ptr %0
}